target datalayout = "e-m:e-p270:32:32-p271:32:32-p272:64:64-i64:64-i128:128-f80:128-n8:16:32:64-S128"
target triple = "x86_64-pc-linux-gnu"

%struct._lv_keyboard_t = type { %struct._lv_buttonmatrix_t, ptr, i32, i8 }
%struct._lv_buttonmatrix_t = type { %struct._lv_obj_t, ptr, ptr, ptr, i32, i32, i32, i8 }
%struct._lv_obj_t = type { ptr, ptr, ptr, ptr, ptr, %struct.lv_area_t, i32, i16, i16 }
%struct.lv_area_t = type { i32, i32, i32, i32 }

@kb_map = internal global [10 x ptr] [ptr @default_kb_map_lc, ptr @default_kb_map_uc, ptr @default_kb_map_spec, ptr @default_kb_map_num, ptr @default_kb_map_lc, ptr @default_kb_map_lc, ptr @default_kb_map_lc, ptr @default_kb_map_lc, ptr null, ptr null], align 16

; Function Attrs: nounwind uwtable
define internal void @lv_keyboard_update_map(ptr noundef %0) #0 {
  %2 = alloca ptr, align 8
  %3 = alloca ptr, align 8
  store ptr %0, ptr %2, align 8, !tbaa !8
  call void @llvm.lifetime.start.p0(i64 8, ptr %3) #3
  %4 = load ptr, ptr %2, align 8, !tbaa !8
  store ptr %4, ptr %3, align 8, !tbaa !10
  %5 = load ptr, ptr %2, align 8, !tbaa !8
  %6 = load ptr, ptr %3, align 8, !tbaa !10
  %7 = getelementptr inbounds nuw %struct._lv_keyboard_t, ptr %6, i32 0, i32 2
  %8 = load i32, ptr %7, align 8, !tbaa !22
  %9 = zext i32 %8 to i64
  %10 = getelementptr inbounds nuw [10 x ptr], ptr @kb_map, i64 0, i64 %9
  %11 = load ptr, ptr %10, align 8, !tbaa !24
  call void @lv_buttonmatrix_set_map(ptr noundef %5, ptr noundef %11)
  %12 = load ptr, ptr %2, align 8, !tbaa !8
  call void @lv_keyboard_update_ctrl_map(ptr noundef %12)
  call void @llvm.lifetime.end.p0(i64 8, ptr %3) #3
  ret void
}

; Function Attrs: nounwind uwtable
define void @lv_keyboard_set_map(ptr noundef %0, i32 noundef %1, ptr noundef %2, ptr noundef %3) #0 {
  %5 = alloca ptr, align 8
  %6 = alloca i32, align 4
  %7 = alloca ptr, align 8
  %8 = alloca ptr, align 8
  store ptr %0, ptr %5, align 8, !tbaa !8
  store i32 %1, ptr %6, align 4, !tbaa !23
  store ptr %2, ptr %7, align 8, !tbaa !24
  store ptr %3, ptr %8, align 8, !tbaa !29
  br label %9

9:                                                ; preds = %4
  %10 = load ptr, ptr %5, align 8, !tbaa !8
  %11 = icmp ne ptr %10, null
  br i1 %11, label %16, label %12

12:                                               ; preds = %9
  br label %13

13:                                               ; preds = %12
  br label %14

14:                                               ; preds = %13
  br label %15

15:                                               ; preds = %14, %15
  br label %15

16:                                               ; preds = %9
  br label %17

17:                                               ; preds = %16
  %18 = load ptr, ptr %7, align 8, !tbaa !24
  %19 = load i32, ptr %6, align 4, !tbaa !23
  %20 = zext i32 %19 to i64
  %21 = getelementptr inbounds nuw [10 x ptr], ptr @kb_map, i64 0, i64 %20
  store ptr %18, ptr %21, align 8, !tbaa !24
  %22 = load ptr, ptr %8, align 8, !tbaa !29
  %23 = load i32, ptr %6, align 4, !tbaa !23
  %24 = zext i32 %23 to i64
  %25 = getelementptr inbounds nuw [10 x ptr], ptr @kb_ctrl, i64 0, i64 %24
  store ptr %22, ptr %25, align 8, !tbaa !29
  %26 = load ptr, ptr %5, align 8, !tbaa !8
  call void @lv_keyboard_update_map(ptr noundef %26)
  ret void
}