; Function Attrs: nounwind uwtable
define void @lv_keyboard_set_map(ptr noundef %0, i32 noundef %1, ptr noundef %2, ptr noundef %3) local_unnamed_addr #0 {
  %.not = icmp eq ptr %0, null
  br i1 %.not, label %.preheader, label %5

.preheader:                                       ; preds = %4, %.preheader
  br label %.preheader

5:                                                ; preds = %4
  %6 = zext i32 %1 to i64
  %7 = getelementptr inbounds nuw [10 x ptr], ptr @kb_map, i64 0, i64 %6
  store ptr %2, ptr %7, align 8, !tbaa !19
  %8 = getelementptr inbounds nuw [10 x ptr], ptr @kb_ctrl, i64 0, i64 %6
  store ptr %3, ptr %8, align 8, !tbaa !20
  %9 = getelementptr inbounds nuw i8, ptr %0, i64 112
  %10 = load i32, ptr %9, align 8, !tbaa !18
  %11 = zext i32 %10 to i64
  %12 = getelementptr inbounds nuw [10 x ptr], ptr @kb_map, i64 0, i64 %11
  %13 = load ptr, ptr %12, align 8, !tbaa !19
  tail call void @lv_buttonmatrix_set_map(ptr noundef nonnull %0, ptr noundef %13) #4
  tail call fastcc void @lv_keyboard_update_ctrl_map(ptr noundef nonnull %0)
  ret void
}